; Function Attrs: nofree norecurse nounwind memory(argmem: readwrite, inaccessiblemem: readwrite) uwtable
define void @wc_Sha512Free(ptr noundef %0) local_unnamed_addr #1 {
  %2 = icmp eq ptr %0, null
  br i1 %2, label %ForceZero.exit, label %3

3:                                                ; preds = %1
  %4 = ptrtoint ptr %0 to i64
  %5 = trunc i64 %4 to i32
  %6 = sub i32 0, %5
  %7 = and i32 %6, 7
  %8 = sub nuw nsw i32 224, %7
  %.not24.i = icmp eq i32 %7, 0
  br i1 %.not24.i, label %.lr.ph29.i.preheader, label %.lr.ph.i

.lr.ph29.i.preheader:                             ; preds = %.lr.ph.i, %3
  %.01528.i.ph = phi ptr [ %0, %3 ], [ %10, %.lr.ph.i ]
  br label %.lr.ph29.i

.lr.ph.i:                                         ; preds = %3, %.lr.ph.i
  %.126.i = phi i32 [ %9, %.lr.ph.i ], [ %7, %3 ]
  %.01625.i = phi ptr [ %10, %.lr.ph.i ], [ %0, %3 ]
  %9 = add nsw i32 %.126.i, -1
  %10 = getelementptr inbounds nuw i8, ptr %.01625.i, i64 1
  store volatile i8 0, ptr %.01625.i, align 1, !tbaa !17
  %.not.i = icmp eq i32 %9, 0
  br i1 %.not.i, label %.lr.ph29.i.preheader, label %.lr.ph.i, !llvm.loop !18

.preheader.i:                                     ; preds = %.lr.ph29.i
  %.not2232.i = icmp eq i32 %12, 0
  br i1 %.not2232.i, label %ForceZero.exit, label %.lr.ph35.i

.lr.ph29.i:                                       ; preds = %.lr.ph29.i.preheader, %.lr.ph29.i
  %.01528.i = phi ptr [ %11, %.lr.ph29.i ], [ %.01528.i.ph, %.lr.ph29.i.preheader ]
  %.01827.i = phi i32 [ %12, %.lr.ph29.i ], [ %8, %.lr.ph29.i.preheader ]
  %11 = getelementptr inbounds nuw i8, ptr %.01528.i, i64 8
  store volatile i64 0, ptr %.01528.i, align 8, !tbaa !10
  %12 = add nsw i32 %.01827.i, -8
  %13 = icmp ugt i32 %12, 7
  br i1 %13, label %.lr.ph29.i, label %.preheader.i, !llvm.loop !19

.lr.ph35.i:                                       ; preds = %.preheader.i, %.lr.ph35.i
  %.11734.i = phi ptr [ %15, %.lr.ph35.i ], [ %11, %.preheader.i ]
  %.11933.i = phi i32 [ %14, %.lr.ph35.i ], [ %12, %.preheader.i ]
  %14 = add i32 %.11933.i, -1
  %15 = getelementptr inbounds nuw i8, ptr %.11734.i, i64 1
  store volatile i8 0, ptr %.11734.i, align 1, !tbaa !17
  %.not22.i = icmp eq i32 %14, 0
  br i1 %.not22.i, label %ForceZero.exit, label %.lr.ph35.i, !llvm.loop !20

ForceZero.exit:                                   ; preds = %.lr.ph35.i, %.preheader.i, %1
  ret void
}